target datalayout = "e-m:e-p270:32:32-p271:32:32-p272:64:64-i64:64-i128:128-f80:128-n8:16:32:64-S128"
target triple = "x86_64-pc-linux-gnu"

; Function Attrs: nounwind uwtable
define internal i32 @encode_residual_fixed_with_residual_limit_33bps(ptr noundef %0, ptr noundef %1, i32 noundef %2, i32 noundef %3) #1 {
  %5 = alloca i32, align 4
  %6 = alloca ptr, align 8
  %7 = alloca ptr, align 8
  %8 = alloca i32, align 4
  %9 = alloca i32, align 4
  %10 = alloca i32, align 4
  %11 = alloca i32, align 4
  %12 = alloca i32, align 4
  %13 = alloca i32, align 4
  %14 = alloca i64, align 8
  %15 = alloca i32, align 4
  %16 = alloca i64, align 8
  %17 = alloca i32, align 4
  %18 = alloca i64, align 8
  %19 = alloca i32, align 4
  %20 = alloca i64, align 8
  store ptr %0, ptr %6, align 8, !tbaa !80
  store ptr %1, ptr %7, align 8, !tbaa !136
  store i32 %2, ptr %8, align 4, !tbaa !29
  store i32 %3, ptr %9, align 4, !tbaa !29
  call void @llvm.lifetime.start.p0(i64 4, ptr %10) #12
  store i32 0, ptr %10, align 4, !tbaa !29
  br label %21

21:                                               ; preds = %37, %4
  %22 = load i32, ptr %10, align 4, !tbaa !29
  %23 = load i32, ptr %9, align 4, !tbaa !29
  %24 = icmp slt i32 %22, %23
  br i1 %24, label %26, label %25

25:                                               ; preds = %21
  call void @llvm.lifetime.end.p0(i64 4, ptr %10) #12
  br label %40

26:                                               ; preds = %21
  %27 = load ptr, ptr %7, align 8, !tbaa !136
  %28 = load i32, ptr %10, align 4, !tbaa !29
  %29 = sext i32 %28 to i64
  %30 = getelementptr inbounds i64, ptr %27, i64 %29
  %31 = load i64, ptr %30, align 8, !tbaa !140
  %32 = trunc i64 %31 to i32
  %33 = load ptr, ptr %6, align 8, !tbaa !80
  %34 = load i32, ptr %10, align 4, !tbaa !29
  %35 = sext i32 %34 to i64
  %36 = getelementptr inbounds i32, ptr %33, i64 %35
  store i32 %32, ptr %36, align 4, !tbaa !29
  br label %37

37:                                               ; preds = %26
  %38 = load i32, ptr %10, align 4, !tbaa !29
  %39 = add nsw i32 %38, 1
  store i32 %39, ptr %10, align 4, !tbaa !29
  br label %21, !llvm.loop !189

40:                                               ; preds = %25
  %41 = load i32, ptr %9, align 4, !tbaa !29
  %42 = icmp eq i32 %41, 0
  br i1 %42, label %43, label %75

43:                                               ; preds = %40
  call void @llvm.lifetime.start.p0(i64 4, ptr %11) #12
  %44 = load i32, ptr %9, align 4, !tbaa !29
  store i32 %44, ptr %11, align 4, !tbaa !29
  br label %45

45:                                               ; preds = %69, %43
  %46 = load i32, ptr %11, align 4, !tbaa !29
  %47 = load i32, ptr %8, align 4, !tbaa !29
  %48 = icmp slt i32 %46, %47
  br i1 %48, label %50, label %49

49:                                               ; preds = %45
  store i32 5, ptr %12, align 4
  br label %72

50:                                               ; preds = %45
  %51 = load ptr, ptr %7, align 8, !tbaa !136
  %52 = load i32, ptr %11, align 4, !tbaa !29
  %53 = sext i32 %52 to i64
  %54 = getelementptr inbounds i64, ptr %51, i64 %53
  %55 = load i64, ptr %54, align 8, !tbaa !140
  %56 = icmp eq i64 %55, -2147483648
  br i1 %56, label %57, label %58

57:                                               ; preds = %50
  store i32 1, ptr %5, align 4
  store i32 1, ptr %12, align 4
  br label %72

58:                                               ; preds = %50
  %59 = load ptr, ptr %7, align 8, !tbaa !136
  %60 = load i32, ptr %11, align 4, !tbaa !29
  %61 = sext i32 %60 to i64
  %62 = getelementptr inbounds i64, ptr %59, i64 %61
  %63 = load i64, ptr %62, align 8, !tbaa !140
  %64 = trunc i64 %63 to i32
  %65 = load ptr, ptr %6, align 8, !tbaa !80
  %66 = load i32, ptr %11, align 4, !tbaa !29
  %67 = sext i32 %66 to i64
  %68 = getelementptr inbounds i32, ptr %65, i64 %67
  store i32 %64, ptr %68, align 4, !tbaa !29
  br label %69

69:                                               ; preds = %58
  %70 = load i32, ptr %11, align 4, !tbaa !29
  %71 = add nsw i32 %70, 1
  store i32 %71, ptr %11, align 4, !tbaa !29
  br label %45, !llvm.loop !190

72:                                               ; preds = %57, %49
  call void @llvm.lifetime.end.p0(i64 4, ptr %11) #12
  %73 = load i32, ptr %12, align 4
  switch i32 %73, label %306 [
    i32 5, label %74
    i32 1, label %304
  ]

74:                                               ; preds = %72
  br label %303

75:                                               ; preds = %40
  %76 = load i32, ptr %9, align 4, !tbaa !29
  %77 = icmp eq i32 %76, 1
  br i1 %77, label %78, label %120

78:                                               ; preds = %75
  call void @llvm.lifetime.start.p0(i64 4, ptr %13) #12
  %79 = load i32, ptr %9, align 4, !tbaa !29
  store i32 %79, ptr %13, align 4, !tbaa !29
  br label %80

80:                                               ; preds = %114, %78
  %81 = load i32, ptr %13, align 4, !tbaa !29
  %82 = load i32, ptr %8, align 4, !tbaa !29
  %83 = icmp slt i32 %81, %82
  br i1 %83, label %85, label %84

84:                                               ; preds = %80
  store i32 8, ptr %12, align 4
  br label %117

85:                                               ; preds = %80
  call void @llvm.lifetime.start.p0(i64 8, ptr %14) #12
  %86 = load ptr, ptr %7, align 8, !tbaa !136
  %87 = load i32, ptr %13, align 4, !tbaa !29
  %88 = sext i32 %87 to i64
  %89 = getelementptr inbounds i64, ptr %86, i64 %88
  %90 = load i64, ptr %89, align 8, !tbaa !140
  %91 = load ptr, ptr %7, align 8, !tbaa !136
  %92 = load i32, ptr %13, align 4, !tbaa !29
  %93 = sub nsw i32 %92, 1
  %94 = sext i32 %93 to i64
  %95 = getelementptr inbounds i64, ptr %91, i64 %94
  %96 = load i64, ptr %95, align 8, !tbaa !140
  %97 = sub nsw i64 %90, %96
  store i64 %97, ptr %14, align 8, !tbaa !140
  %98 = load i64, ptr %14, align 8, !tbaa !140
  %99 = icmp sle i64 %98, -2147483648
  br i1 %99, label %103, label %100

100:                                              ; preds = %85
  %101 = load i64, ptr %14, align 8, !tbaa !140
  %102 = icmp sgt i64 %101, 2147483647
  br i1 %102, label %103, label %104

103:                                              ; preds = %100, %85
  store i32 1, ptr %5, align 4
  store i32 1, ptr %12, align 4
  br label %111

104:                                              ; preds = %100
  %105 = load i64, ptr %14, align 8, !tbaa !140
  %106 = trunc i64 %105 to i32
  %107 = load ptr, ptr %6, align 8, !tbaa !80
  %108 = load i32, ptr %13, align 4, !tbaa !29
  %109 = sext i32 %108 to i64
  %110 = getelementptr inbounds i32, ptr %107, i64 %109
  store i32 %106, ptr %110, align 4, !tbaa !29
  store i32 0, ptr %12, align 4
  br label %111

111:                                              ; preds = %104, %103
  call void @llvm.lifetime.end.p0(i64 8, ptr %14) #12
  %112 = load i32, ptr %12, align 4
  switch i32 %112, label %117 [
    i32 0, label %113
  ]

113:                                              ; preds = %111
  br label %114

114:                                              ; preds = %113
  %115 = load i32, ptr %13, align 4, !tbaa !29
  %116 = add nsw i32 %115, 1
  store i32 %116, ptr %13, align 4, !tbaa !29
  br label %80, !llvm.loop !191

117:                                              ; preds = %111, %84
  call void @llvm.lifetime.end.p0(i64 4, ptr %13) #12
  %118 = load i32, ptr %12, align 4
  switch i32 %118, label %306 [
    i32 8, label %119
    i32 1, label %304
  ]

119:                                              ; preds = %117
  br label %302

120:                                              ; preds = %75
  %121 = load i32, ptr %9, align 4, !tbaa !29
  %122 = icmp eq i32 %121, 2
  br i1 %122, label %123, label %173

123:                                              ; preds = %120
  call void @llvm.lifetime.start.p0(i64 4, ptr %15) #12
  %124 = load i32, ptr %9, align 4, !tbaa !29
  store i32 %124, ptr %15, align 4, !tbaa !29
  br label %125

125:                                              ; preds = %167, %123
  %126 = load i32, ptr %15, align 4, !tbaa !29
  %127 = load i32, ptr %8, align 4, !tbaa !29
  %128 = icmp slt i32 %126, %127
  br i1 %128, label %130, label %129

129:                                              ; preds = %125
  store i32 11, ptr %12, align 4
  br label %170

130:                                              ; preds = %125
  call void @llvm.lifetime.start.p0(i64 8, ptr %16) #12
  %131 = load ptr, ptr %7, align 8, !tbaa !136
  %132 = load i32, ptr %15, align 4, !tbaa !29
  %133 = sext i32 %132 to i64
  %134 = getelementptr inbounds i64, ptr %131, i64 %133
  %135 = load i64, ptr %134, align 8, !tbaa !140
  %136 = load ptr, ptr %7, align 8, !tbaa !136
  %137 = load i32, ptr %15, align 4, !tbaa !29
  %138 = sub nsw i32 %137, 1
  %139 = sext i32 %138 to i64
  %140 = getelementptr inbounds i64, ptr %136, i64 %139
  %141 = load i64, ptr %140, align 8, !tbaa !140
  %142 = mul nsw i64 2, %141
  %143 = sub nsw i64 %135, %142
  %144 = load ptr, ptr %7, align 8, !tbaa !136
  %145 = load i32, ptr %15, align 4, !tbaa !29
  %146 = sub nsw i32 %145, 2
  %147 = sext i32 %146 to i64
  %148 = getelementptr inbounds i64, ptr %144, i64 %147
  %149 = load i64, ptr %148, align 8, !tbaa !140
  %150 = add nsw i64 %143, %149
  store i64 %150, ptr %16, align 8, !tbaa !140
  %151 = load i64, ptr %16, align 8, !tbaa !140
  %152 = icmp sle i64 %151, -2147483648
  br i1 %152, label %156, label %153

153:                                              ; preds = %130
  %154 = load i64, ptr %16, align 8, !tbaa !140
  %155 = icmp sgt i64 %154, 2147483647
  br i1 %155, label %156, label %157

156:                                              ; preds = %153, %130
  store i32 1, ptr %5, align 4
  store i32 1, ptr %12, align 4
  br label %164

157:                                              ; preds = %153
  %158 = load i64, ptr %16, align 8, !tbaa !140
  %159 = trunc i64 %158 to i32
  %160 = load ptr, ptr %6, align 8, !tbaa !80
  %161 = load i32, ptr %15, align 4, !tbaa !29
  %162 = sext i32 %161 to i64
  %163 = getelementptr inbounds i32, ptr %160, i64 %162
  store i32 %159, ptr %163, align 4, !tbaa !29
  store i32 0, ptr %12, align 4
  br label %164

164:                                              ; preds = %157, %156
  call void @llvm.lifetime.end.p0(i64 8, ptr %16) #12
  %165 = load i32, ptr %12, align 4
  switch i32 %165, label %170 [
    i32 0, label %166
  ]

166:                                              ; preds = %164
  br label %167

167:                                              ; preds = %166
  %168 = load i32, ptr %15, align 4, !tbaa !29
  %169 = add nsw i32 %168, 1
  store i32 %169, ptr %15, align 4, !tbaa !29
  br label %125, !llvm.loop !192

170:                                              ; preds = %164, %129
  call void @llvm.lifetime.end.p0(i64 4, ptr %15) #12
  %171 = load i32, ptr %12, align 4
  switch i32 %171, label %306 [
    i32 11, label %172
    i32 1, label %304
  ]

172:                                              ; preds = %170
  br label %301

173:                                              ; preds = %120
  %174 = load i32, ptr %9, align 4, !tbaa !29
  %175 = icmp eq i32 %174, 3
  br i1 %175, label %176, label %234

176:                                              ; preds = %173
  call void @llvm.lifetime.start.p0(i64 4, ptr %17) #12
  %177 = load i32, ptr %9, align 4, !tbaa !29
  store i32 %177, ptr %17, align 4, !tbaa !29
  br label %178

178:                                              ; preds = %228, %176
  %179 = load i32, ptr %17, align 4, !tbaa !29
  %180 = load i32, ptr %8, align 4, !tbaa !29
  %181 = icmp slt i32 %179, %180
  br i1 %181, label %183, label %182

182:                                              ; preds = %178
  store i32 14, ptr %12, align 4
  br label %231

183:                                              ; preds = %178
  call void @llvm.lifetime.start.p0(i64 8, ptr %18) #12
  %184 = load ptr, ptr %7, align 8, !tbaa !136
  %185 = load i32, ptr %17, align 4, !tbaa !29
  %186 = sext i32 %185 to i64
  %187 = getelementptr inbounds i64, ptr %184, i64 %186
  %188 = load i64, ptr %187, align 8, !tbaa !140
  %189 = load ptr, ptr %7, align 8, !tbaa !136
  %190 = load i32, ptr %17, align 4, !tbaa !29
  %191 = sub nsw i32 %190, 1
  %192 = sext i32 %191 to i64
  %193 = getelementptr inbounds i64, ptr %189, i64 %192
  %194 = load i64, ptr %193, align 8, !tbaa !140
  %195 = mul nsw i64 3, %194
  %196 = sub nsw i64 %188, %195
  %197 = load ptr, ptr %7, align 8, !tbaa !136
  %198 = load i32, ptr %17, align 4, !tbaa !29
  %199 = sub nsw i32 %198, 2
  %200 = sext i32 %199 to i64
  %201 = getelementptr inbounds i64, ptr %197, i64 %200
  %202 = load i64, ptr %201, align 8, !tbaa !140
  %203 = mul nsw i64 3, %202
  %204 = add nsw i64 %196, %203
  %205 = load ptr, ptr %7, align 8, !tbaa !136
  %206 = load i32, ptr %17, align 4, !tbaa !29
  %207 = sub nsw i32 %206, 3
  %208 = sext i32 %207 to i64
  %209 = getelementptr inbounds i64, ptr %205, i64 %208
  %210 = load i64, ptr %209, align 8, !tbaa !140
  %211 = sub nsw i64 %204, %210
  store i64 %211, ptr %18, align 8, !tbaa !140
  %212 = load i64, ptr %18, align 8, !tbaa !140
  %213 = icmp sle i64 %212, -2147483648
  br i1 %213, label %217, label %214

214:                                              ; preds = %183
  %215 = load i64, ptr %18, align 8, !tbaa !140
  %216 = icmp sgt i64 %215, 2147483647
  br i1 %216, label %217, label %218

217:                                              ; preds = %214, %183
  store i32 1, ptr %5, align 4
  store i32 1, ptr %12, align 4
  br label %225

218:                                              ; preds = %214
  %219 = load i64, ptr %18, align 8, !tbaa !140
  %220 = trunc i64 %219 to i32
  %221 = load ptr, ptr %6, align 8, !tbaa !80
  %222 = load i32, ptr %17, align 4, !tbaa !29
  %223 = sext i32 %222 to i64
  %224 = getelementptr inbounds i32, ptr %221, i64 %223
  store i32 %220, ptr %224, align 4, !tbaa !29
  store i32 0, ptr %12, align 4
  br label %225

225:                                              ; preds = %218, %217
  call void @llvm.lifetime.end.p0(i64 8, ptr %18) #12
  %226 = load i32, ptr %12, align 4
  switch i32 %226, label %231 [
    i32 0, label %227
  ]

227:                                              ; preds = %225
  br label %228

228:                                              ; preds = %227
  %229 = load i32, ptr %17, align 4, !tbaa !29
  %230 = add nsw i32 %229, 1
  store i32 %230, ptr %17, align 4, !tbaa !29
  br label %178, !llvm.loop !193

231:                                              ; preds = %225, %182
  call void @llvm.lifetime.end.p0(i64 4, ptr %17) #12
  %232 = load i32, ptr %12, align 4
  switch i32 %232, label %306 [
    i32 14, label %233
    i32 1, label %304
  ]

233:                                              ; preds = %231
  br label %300

234:                                              ; preds = %173
  call void @llvm.lifetime.start.p0(i64 4, ptr %19) #12
  %235 = load i32, ptr %9, align 4, !tbaa !29
  store i32 %235, ptr %19, align 4, !tbaa !29
  br label %236

236:                                              ; preds = %294, %234
  %237 = load i32, ptr %19, align 4, !tbaa !29
  %238 = load i32, ptr %8, align 4, !tbaa !29
  %239 = icmp slt i32 %237, %238
  br i1 %239, label %241, label %240

240:                                              ; preds = %236
  store i32 17, ptr %12, align 4
  br label %297

241:                                              ; preds = %236
  call void @llvm.lifetime.start.p0(i64 8, ptr %20) #12
  %242 = load ptr, ptr %7, align 8, !tbaa !136
  %243 = load i32, ptr %19, align 4, !tbaa !29
  %244 = sext i32 %243 to i64
  %245 = getelementptr inbounds i64, ptr %242, i64 %244
  %246 = load i64, ptr %245, align 8, !tbaa !140
  %247 = load ptr, ptr %7, align 8, !tbaa !136
  %248 = load i32, ptr %19, align 4, !tbaa !29
  %249 = sub nsw i32 %248, 1
  %250 = sext i32 %249 to i64
  %251 = getelementptr inbounds i64, ptr %247, i64 %250
  %252 = load i64, ptr %251, align 8, !tbaa !140
  %253 = mul nsw i64 4, %252
  %254 = sub nsw i64 %246, %253
  %255 = load ptr, ptr %7, align 8, !tbaa !136
  %256 = load i32, ptr %19, align 4, !tbaa !29
  %257 = sub nsw i32 %256, 2
  %258 = sext i32 %257 to i64
  %259 = getelementptr inbounds i64, ptr %255, i64 %258
  %260 = load i64, ptr %259, align 8, !tbaa !140
  %261 = mul nsw i64 6, %260
  %262 = add nsw i64 %254, %261
  %263 = load ptr, ptr %7, align 8, !tbaa !136
  %264 = load i32, ptr %19, align 4, !tbaa !29
  %265 = sub nsw i32 %264, 3
  %266 = sext i32 %265 to i64
  %267 = getelementptr inbounds i64, ptr %263, i64 %266
  %268 = load i64, ptr %267, align 8, !tbaa !140
  %269 = mul nsw i64 4, %268
  %270 = sub nsw i64 %262, %269
  %271 = load ptr, ptr %7, align 8, !tbaa !136
  %272 = load i32, ptr %19, align 4, !tbaa !29
  %273 = sub nsw i32 %272, 4
  %274 = sext i32 %273 to i64
  %275 = getelementptr inbounds i64, ptr %271, i64 %274
  %276 = load i64, ptr %275, align 8, !tbaa !140
  %277 = add nsw i64 %270, %276
  store i64 %277, ptr %20, align 8, !tbaa !140
  %278 = load i64, ptr %20, align 8, !tbaa !140
  %279 = icmp sle i64 %278, -2147483648
  br i1 %279, label %283, label %280

280:                                              ; preds = %241
  %281 = load i64, ptr %20, align 8, !tbaa !140
  %282 = icmp sgt i64 %281, 2147483647
  br i1 %282, label %283, label %284

283:                                              ; preds = %280, %241
  store i32 1, ptr %5, align 4
  store i32 1, ptr %12, align 4
  br label %291

284:                                              ; preds = %280
  %285 = load i64, ptr %20, align 8, !tbaa !140
  %286 = trunc i64 %285 to i32
  %287 = load ptr, ptr %6, align 8, !tbaa !80
  %288 = load i32, ptr %19, align 4, !tbaa !29
  %289 = sext i32 %288 to i64
  %290 = getelementptr inbounds i32, ptr %287, i64 %289
  store i32 %286, ptr %290, align 4, !tbaa !29
  store i32 0, ptr %12, align 4
  br label %291

291:                                              ; preds = %284, %283
  call void @llvm.lifetime.end.p0(i64 8, ptr %20) #12
  %292 = load i32, ptr %12, align 4
  switch i32 %292, label %297 [
    i32 0, label %293
  ]

293:                                              ; preds = %291
  br label %294

294:                                              ; preds = %293
  %295 = load i32, ptr %19, align 4, !tbaa !29
  %296 = add nsw i32 %295, 1
  store i32 %296, ptr %19, align 4, !tbaa !29
  br label %236, !llvm.loop !194

297:                                              ; preds = %291, %240
  call void @llvm.lifetime.end.p0(i64 4, ptr %19) #12
  %298 = load i32, ptr %12, align 4
  switch i32 %298, label %306 [
    i32 17, label %299
    i32 1, label %304
  ]

299:                                              ; preds = %297
  br label %300

300:                                              ; preds = %299, %233
  br label %301

301:                                              ; preds = %300, %172
  br label %302

302:                                              ; preds = %301, %119
  br label %303

303:                                              ; preds = %302, %74
  store i32 0, ptr %5, align 4
  br label %304

304:                                              ; preds = %303, %297, %231, %170, %117, %72
  %305 = load i32, ptr %5, align 4
  ret i32 %305

306:                                              ; preds = %297, %231, %170, %117, %72
  unreachable
}