; Function Attrs: nofree norecurse nosync nounwind memory(argmem: readwrite) uwtable
define internal fastcc range(i32 0, 2) i32 @encode_residual_fixed_with_residual_limit_33bps(ptr noundef writeonly captures(none) %0, ptr noundef readonly captures(none) %1, i32 noundef range(i32 5, -2147483648) %2, i32 noundef %3) unnamed_addr #7 {
  %5 = icmp sgt i32 %3, 0
  br i1 %5, label %.lr.ph.preheader, label %._crit_edge

.lr.ph.preheader:                                 ; preds = %4
  %wide.trip.count = zext nneg i32 %3 to i64
  br label %.lr.ph

._crit_edge:                                      ; preds = %.lr.ph, %4
  switch i32 %3, label %.preheader [
    i32 0, label %.preheader150.preheader
    i32 1, label %.preheader153.preheader
    i32 2, label %.preheader156.preheader
    i32 3, label %.preheader159.preheader
  ]

.preheader159.preheader:                          ; preds = %._crit_edge
  %wide.trip.count184 = zext nneg i32 %2 to i64
  br label %.preheader159

.preheader156.preheader:                          ; preds = %._crit_edge
  %wide.trip.count189 = zext nneg i32 %2 to i64
  br label %.preheader156

.preheader153.preheader:                          ; preds = %._crit_edge
  %wide.trip.count194 = zext nneg i32 %2 to i64
  br label %.preheader153

.preheader150.preheader:                          ; preds = %._crit_edge
  %wide.trip.count199 = zext nneg i32 %2 to i64
  br label %.preheader150

.preheader:                                       ; preds = %._crit_edge
  %6 = icmp slt i32 %3, %2
  br i1 %6, label %.lr.ph168.preheader, label %.thread

.lr.ph168.preheader:                              ; preds = %.preheader
  %7 = sext i32 %3 to i64
  %wide.trip.count204 = zext nneg i32 %2 to i64
  br label %.lr.ph168

.lr.ph:                                           ; preds = %.lr.ph.preheader, %.lr.ph
  %indvars.iv = phi i64 [ 0, %.lr.ph.preheader ], [ %indvars.iv.next, %.lr.ph ]
  %8 = getelementptr inbounds nuw i64, ptr %1, i64 %indvars.iv
  %9 = load i64, ptr %8, align 8, !tbaa !102
  %10 = trunc i64 %9 to i32
  %11 = getelementptr inbounds nuw i32, ptr %0, i64 %indvars.iv
  store i32 %10, ptr %11, align 4, !tbaa !45
  %indvars.iv.next = add nuw nsw i64 %indvars.iv, 1
  %exitcond.not = icmp eq i64 %indvars.iv.next, %wide.trip.count
  br i1 %exitcond.not, label %._crit_edge, label %.lr.ph, !llvm.loop !175

.preheader150:                                    ; preds = %.preheader150.preheader, %15
  %indvars.iv196 = phi i64 [ 0, %.preheader150.preheader ], [ %indvars.iv.next197, %15 ]
  %12 = getelementptr inbounds nuw i64, ptr %1, i64 %indvars.iv196
  %13 = load i64, ptr %12, align 8, !tbaa !102
  %14 = icmp eq i64 %13, -2147483648
  br i1 %14, label %.thread, label %15

15:                                               ; preds = %.preheader150
  %16 = trunc i64 %13 to i32
  %17 = getelementptr inbounds nuw i32, ptr %0, i64 %indvars.iv196
  store i32 %16, ptr %17, align 4, !tbaa !45
  %indvars.iv.next197 = add nuw nsw i64 %indvars.iv196, 1
  %exitcond200.not = icmp eq i64 %indvars.iv.next197, %wide.trip.count199
  br i1 %exitcond200.not, label %.thread, label %.preheader150, !llvm.loop !176

.preheader153:                                    ; preds = %.preheader153.preheader, %24
  %indvars.iv191 = phi i64 [ 1, %.preheader153.preheader ], [ %indvars.iv.next192, %24 ]
  %18 = getelementptr inbounds nuw i64, ptr %1, i64 %indvars.iv191
  %19 = load i64, ptr %18, align 8, !tbaa !102
  %20 = getelementptr i8, ptr %18, i64 -8
  %21 = load i64, ptr %20, align 8, !tbaa !102
  %22 = sub nsw i64 %19, %21
  %23 = add i64 %22, 2147483647
  %or.cond = icmp ult i64 %23, 4294967295
  br i1 %or.cond, label %24, label %.thread

24:                                               ; preds = %.preheader153
  %25 = trunc nsw i64 %22 to i32
  %26 = getelementptr inbounds nuw i32, ptr %0, i64 %indvars.iv191
  store i32 %25, ptr %26, align 4, !tbaa !45
  %indvars.iv.next192 = add nuw nsw i64 %indvars.iv191, 1
  %exitcond195.not = icmp eq i64 %indvars.iv.next192, %wide.trip.count194
  br i1 %exitcond195.not, label %.thread, label %.preheader153, !llvm.loop !177

.preheader156:                                    ; preds = %.preheader156.preheader, %37
  %indvars.iv186 = phi i64 [ 2, %.preheader156.preheader ], [ %indvars.iv.next187, %37 ]
  %27 = getelementptr inbounds nuw i64, ptr %1, i64 %indvars.iv186
  %28 = load i64, ptr %27, align 8, !tbaa !102
  %29 = getelementptr i8, ptr %27, i64 -8
  %30 = load i64, ptr %29, align 8, !tbaa !102
  %31 = shl nsw i64 %30, 1
  %32 = sub nsw i64 %28, %31
  %33 = getelementptr i8, ptr %27, i64 -16
  %34 = load i64, ptr %33, align 8, !tbaa !102
  %35 = add nsw i64 %32, %34
  %36 = add i64 %35, 2147483647
  %or.cond6 = icmp ult i64 %36, 4294967295
  br i1 %or.cond6, label %37, label %.thread

37:                                               ; preds = %.preheader156
  %38 = trunc nsw i64 %35 to i32
  %39 = getelementptr inbounds nuw i32, ptr %0, i64 %indvars.iv186
  store i32 %38, ptr %39, align 4, !tbaa !45
  %indvars.iv.next187 = add nuw nsw i64 %indvars.iv186, 1
  %exitcond190.not = icmp eq i64 %indvars.iv.next187, %wide.trip.count189
  br i1 %exitcond190.not, label %.thread, label %.preheader156, !llvm.loop !178

.preheader159:                                    ; preds = %.preheader159.preheader, %51
  %indvars.iv181 = phi i64 [ 3, %.preheader159.preheader ], [ %indvars.iv.next182, %51 ]
  %40 = getelementptr inbounds nuw i64, ptr %1, i64 %indvars.iv181
  %41 = load i64, ptr %40, align 8, !tbaa !102
  %42 = getelementptr i8, ptr %40, i64 -8
  %43 = load i64, ptr %42, align 8, !tbaa !102
  %44 = getelementptr i8, ptr %40, i64 -16
  %45 = load i64, ptr %44, align 8, !tbaa !102
  %46 = getelementptr i8, ptr %40, i64 -24
  %47 = load i64, ptr %46, align 8, !tbaa !102
  %reass.add = sub i64 %45, %43
  %reass.mul = mul i64 %reass.add, 3
  %48 = sub i64 %41, %47
  %49 = add i64 %48, %reass.mul
  %50 = add i64 %49, 2147483647
  %or.cond8 = icmp ult i64 %50, 4294967295
  br i1 %or.cond8, label %51, label %.thread

51:                                               ; preds = %.preheader159
  %52 = trunc nsw i64 %49 to i32
  %53 = getelementptr inbounds nuw i32, ptr %0, i64 %indvars.iv181
  store i32 %52, ptr %53, align 4, !tbaa !45
  %indvars.iv.next182 = add nuw nsw i64 %indvars.iv181, 1
  %exitcond185.not = icmp eq i64 %indvars.iv.next182, %wide.trip.count184
  br i1 %exitcond185.not, label %.thread, label %.preheader159, !llvm.loop !179

.lr.ph168:                                        ; preds = %.lr.ph168.preheader, %71
  %indvars.iv201 = phi i64 [ %7, %.lr.ph168.preheader ], [ %indvars.iv.next202, %71 ]
  %54 = getelementptr inbounds i64, ptr %1, i64 %indvars.iv201
  %55 = load i64, ptr %54, align 8, !tbaa !102
  %56 = getelementptr i8, ptr %54, i64 -8
  %57 = load i64, ptr %56, align 8, !tbaa !102
  %58 = getelementptr i8, ptr %54, i64 -16
  %59 = load i64, ptr %58, align 8, !tbaa !102
  %60 = mul nsw i64 %59, 6
  %61 = getelementptr i8, ptr %54, i64 -24
  %62 = load i64, ptr %61, align 8, !tbaa !102
  %63 = add i64 %60, %55
  %64 = add i64 %62, %57
  %65 = getelementptr i8, ptr %54, i64 -32
  %66 = load i64, ptr %65, align 8, !tbaa !102
  %67 = add i64 %63, %66
  %68 = shl i64 %64, 2
  %69 = sub i64 %67, %68
  %70 = add i64 %69, 2147483647
  %or.cond10 = icmp ult i64 %70, 4294967295
  br i1 %or.cond10, label %71, label %.thread

71:                                               ; preds = %.lr.ph168
  %72 = trunc nsw i64 %69 to i32
  %73 = getelementptr inbounds i32, ptr %0, i64 %indvars.iv201
  store i32 %72, ptr %73, align 4, !tbaa !45
  %indvars.iv.next202 = add nsw i64 %indvars.iv201, 1
  %exitcond205.not = icmp eq i64 %indvars.iv.next202, %wide.trip.count204
  br i1 %exitcond205.not, label %.thread, label %.lr.ph168, !llvm.loop !180

.thread:                                          ; preds = %.preheader159, %51, %.preheader156, %37, %.preheader153, %24, %.preheader150, %15, %71, %.lr.ph168, %.preheader
  %.1 = phi i32 [ 0, %.preheader ], [ 0, %71 ], [ 1, %.lr.ph168 ], [ 1, %.preheader150 ], [ 0, %15 ], [ 1, %.preheader153 ], [ 0, %24 ], [ 1, %.preheader156 ], [ 0, %37 ], [ 1, %.preheader159 ], [ 0, %51 ]
  ret i32 %.1
}